; Function Attrs: nounwind uwtable
define dso_local ptr @list_intersection(ptr noundef readonly captures(address_is_null) %0, ptr noundef readonly captures(address_is_null) %1) local_unnamed_addr #0 {
  %3 = icmp eq ptr %0, null
  %4 = icmp eq ptr %1, null
  %or.cond = or i1 %3, %4
  br i1 %or.cond, label %.loopexit, label %.preheader

.preheader:                                       ; preds = %2
  %5 = getelementptr inbounds nuw i8, ptr %0, i64 4
  %6 = load i32, ptr %5, align 4
  %.not21 = icmp sgt i32 %6, 0
  br i1 %.not21, label %.lr.ph.i.lr.ph, label %.loopexit

.lr.ph.i.lr.ph:                                   ; preds = %.preheader
  %7 = getelementptr inbounds nuw i8, ptr %0, i64 16
  %8 = getelementptr inbounds nuw i8, ptr %1, i64 4
  %9 = getelementptr inbounds nuw i8, ptr %1, i64 16
  %10 = load i32, ptr %8, align 4
  %11 = icmp sgt i32 %10, 0
  br i1 %11, label %.lr.ph.i, label %.loopexit

.lr.ph.ithread-pre-split:                         ; preds = %list_member.exit.thread
  %.pr = load i32, ptr %8, align 4
  br label %.lr.ph.i

.lr.ph.i:                                         ; preds = %.lr.ph.i.lr.ph, %.lr.ph.ithread-pre-split
  %12 = phi i32 [ %.pr, %.lr.ph.ithread-pre-split ], [ %10, %.lr.ph.i.lr.ph ]
  %indvars.iv = phi i64 [ %indvars.iv.next, %.lr.ph.ithread-pre-split ], [ 0, %.lr.ph.i.lr.ph ]
  %.01422 = phi ptr [ %.1, %.lr.ph.ithread-pre-split ], [ null, %.lr.ph.i.lr.ph ]
  %13 = load ptr, ptr %7, align 8
  %14 = getelementptr inbounds nuw %union.ListCell, ptr %13, i64 %indvars.iv
  %15 = load ptr, ptr %14, align 8
  %16 = icmp sgt i32 %12, 0
  br i1 %16, label %.lr.ph23.i, label %list_member.exit.thread

17:                                               ; preds = %.lr.ph23.i
  %indvars.iv.next.i = add nuw nsw i64 %indvars.iv.i, 1
  %18 = load i32, ptr %8, align 4
  %19 = sext i32 %18 to i64
  %20 = icmp slt i64 %indvars.iv.next.i, %19
  br i1 %20, label %.lr.ph23.i, label %list_member.exit.thread

.lr.ph23.i:                                       ; preds = %.lr.ph.i, %17
  %indvars.iv.i = phi i64 [ %indvars.iv.next.i, %17 ], [ 0, %.lr.ph.i ]
  %21 = load ptr, ptr %9, align 8
  %22 = getelementptr inbounds nuw %union.ListCell, ptr %21, i64 %indvars.iv.i
  %23 = load ptr, ptr %22, align 8
  %24 = tail call zeroext i1 @equal(ptr noundef %23, ptr noundef %15) #9
  br i1 %24, label %list_member.exit, label %17

list_member.exit:                                 ; preds = %.lr.ph23.i
  %25 = load ptr, ptr %14, align 8
  %26 = tail call ptr @lappend(ptr noundef %.01422, ptr noundef %25)
  br label %list_member.exit.thread

list_member.exit.thread:                          ; preds = %17, %.lr.ph.i, %list_member.exit
  %.1 = phi ptr [ %26, %list_member.exit ], [ %.01422, %.lr.ph.i ], [ %.01422, %17 ]
  %indvars.iv.next = add nuw nsw i64 %indvars.iv, 1
  %27 = load i32, ptr %5, align 4
  %28 = sext i32 %27 to i64
  %.not = icmp slt i64 %indvars.iv.next, %28
  br i1 %.not, label %.lr.ph.ithread-pre-split, label %.loopexit, !llvm.loop !4

.loopexit:                                        ; preds = %list_member.exit.thread, %.lr.ph.i.lr.ph, %.preheader, %2
  %.0 = phi ptr [ null, %2 ], [ null, %.preheader ], [ null, %.lr.ph.i.lr.ph ], [ %.1, %list_member.exit.thread ]
  ret ptr %.0
}